(dp0
S'sam'
p1
(dp2
S'node_key'
p3
S'a'
p4
sS'node_info'
p5
S''
p6
sS'creation_time'
p7
S'2018-03-06T12:38:12.188388'
p8
sS'moved_from'
p9
(dp10
g4
(lp11
(dp12
S'session'
p13
S'xyz'
p14
sS'to_node'
p15
S'b'
p16
sS'from_node'
p17
g4
sS'time'
p18
g6
sa(dp19
g13
g14
sg15
g16
sg17
g4
sg18
g6
sa(dp20
g13
g14
sg15
g16
sg17
g4
sg18
g6
sa(dp21
g13
g14
sg15
S'c'
p22
sg17
g4
sg18
g6
sa(dp23
g13
g14
sg15
S'd'
p24
sg17
g4
sg18
g6
sa(dp25
g13
g14
sg15
g24
sg17
g4
sg18
g6
sa(dp26
g13
g14
sg15
S'e'
p27
sg17
g4
sg18
g6
sa(dp28
g13
g14
sg15
g22
sg17
g4
sg18
g6
sa(dp29
g13
g14
sg15
g16
sg17
g4
sg18
g6
sa(dp30
g13
g14
sg15
g16
sg17
g4
sg18
g6
sasg22
(lp31
(dp32
g13
g14
sg15
g16
sg17
g22
sg18
g6
sasg24
(lp33
(dp34
g13
g14
sg15
g16
sg17
g24
sg18
g6
sassS'moved_to'
p35
(dp36
g22
(lp37
g21
ag28
asg16
(lp38
g12
ag19
ag20
ag29
ag32
ag34
ag30
asg27
(lp39
g26
asg24
(lp40
g23
ag25
asss.